; Function Attrs: nounwind uwtable
define internal void @userfilter_dtor(ptr noundef %0) #0 {
  %2 = alloca %struct._zval_struct, align 8
  %3 = getelementptr inbounds i8, ptr %0, i64 8
  %4 = getelementptr inbounds i8, ptr %0, i64 16
  %5 = load i8, ptr %4, align 8
  %6 = icmp eq i8 %5, 0
  br i1 %6, label %28, label %7

7:                                                ; preds = %1
  %8 = tail call noalias ptr @_emalloc_32() #11
  store i32 1, ptr %8, align 4
  %9 = getelementptr inbounds i8, ptr %8, i64 4
  store i32 22, ptr %9, align 4
  %10 = getelementptr inbounds i8, ptr %8, i64 8
  store i64 0, ptr %10, align 8
  %11 = getelementptr inbounds i8, ptr %8, i64 16
  store i64 7, ptr %11, align 8
  %12 = getelementptr inbounds i8, ptr %8, i64 24
  tail call void @llvm.memcpy.p0.p0.i64(ptr noundef nonnull align 8 dereferenceable(7) %12, ptr noundef nonnull align 1 dereferenceable(7) @.str.31, i64 7, i1 false)
  %13 = getelementptr inbounds i8, ptr %8, i64 31
  store i8 0, ptr %13, align 1
  %14 = load ptr, ptr %3, align 8
  %15 = call i32 @zend_call_method_if_exists(ptr noundef %14, ptr noundef nonnull %8, ptr noundef nonnull %2, i32 noundef 0, ptr noundef null) #11
  %16 = load i32, ptr %9, align 4
  %17 = and i32 %16, 64
  %.not = icmp eq i32 %17, 0
  br i1 %.not, label %18, label %27

18:                                               ; preds = %7
  %19 = load i32, ptr %8, align 4
  %20 = icmp ne i32 %19, 0
  call void @llvm.assume(i1 %20)
  %21 = add i32 %19, -1
  store i32 %21, ptr %8, align 4
  %22 = icmp eq i32 %21, 0
  br i1 %22, label %23, label %27

23:                                               ; preds = %18
  %24 = and i32 %16, 128
  %.not69 = icmp eq i32 %24, 0
  br i1 %.not69, label %26, label %25

25:                                               ; preds = %23
  call void @free(ptr noundef nonnull %8) #11
  br label %27

26:                                               ; preds = %23
  call void @_efree(ptr noundef nonnull %8) #11
  br label %27

27:                                               ; preds = %18, %26, %25, %7
  call void @zval_ptr_dtor(ptr noundef nonnull %2) #11
  call void @zval_ptr_dtor(ptr noundef nonnull %3) #11
  br label %28

28:                                               ; preds = %1, %27
  ret void
}